target datalayout = "e-m:e-p270:32:32-p271:32:32-p272:64:64-i64:64-i128:128-f80:128-n8:16:32:64-S128"
target triple = "x86_64-pc-linux-gnu"

%"class.std::__cxx11::basic_string" = type { %"struct.std::__cxx11::basic_string<char>::_Alloc_hider", i64, %union.anon }
%"struct.std::__cxx11::basic_string<char>::_Alloc_hider" = type { ptr }
%union.anon = type { i64, [8 x i8] }
%"class.absl::lts_20240722::AlphaNum" = type { %"class.std::basic_string_view", [32 x i8] }
%"class.std::basic_string_view" = type { i64, ptr }
%"class.std::optional" = type { %"struct.std::_Optional_base" }
%"struct.std::_Optional_base" = type { %"struct.std::_Optional_payload" }
%"struct.std::_Optional_payload" = type { %"struct.std::_Optional_payload_base.base", [7 x i8] }
%"struct.std::_Optional_payload_base.base" = type <{ %"union.std::_Optional_payload_base<long>::_Storage", i8 }>
%"union.std::_Optional_payload_base<long>::_Storage" = type { i64 }
%"class.std::initializer_list.56" = type { ptr, i64 }
%"struct.grpc_core::chttp2::StreamFlowControl::Stats" = type { i64, i64, i64, %"class.std::optional" }
%"struct.std::_Optional_payload_base" = type <{ %"union.std::_Optional_payload_base<long>::_Storage", i8, [7 x i8] }>

@.str.30 = private unnamed_addr constant [20 x i8] c"min_progress_size: \00", align 1
@.str.31 = private unnamed_addr constant [23 x i8] c" remote_window_delta: \00", align 1
@.str.32 = private unnamed_addr constant [26 x i8] c" announced_window_delta: \00", align 1

; Function Attrs: noinline noreturn nounwind uwtable
define linkonce_odr hidden void @__clang_call_terminate(ptr noundef %0) #15 comdat {
  %2 = call ptr @__cxa_begin_catch(ptr %0) #3
  call void @_ZSt9terminatev() #22
  unreachable
}

; Function Attrs: mustprogress nounwind uwtable
define linkonce_odr noundef i64 @_ZNSt11char_traitsIcE6lengthEPKc(ptr noundef %0) #8 comdat align 2 {
  %2 = alloca ptr, align 8
  store ptr %0, ptr %2, align 8, !tbaa !10
  %3 = load ptr, ptr %2, align 8, !tbaa !10
  %4 = call i64 @strlen(ptr noundef %3) #3
  ret i64 %4
}

; Function Attrs: mustprogress nounwind uwtable
define linkonce_odr noundef nonnull align 8 dereferenceable(8) ptr @_ZNKSt22_Optional_payload_baseIlE6_M_getEv(ptr noundef nonnull align 8 dereferenceable(9) %0) #8 comdat align 2 {
  %2 = alloca ptr, align 8
  store ptr %0, ptr %2, align 8, !tbaa !172
  %3 = load ptr, ptr %2, align 8
  %4 = getelementptr inbounds nuw %"struct.std::_Optional_payload_base", ptr %3, i32 0, i32 0
  ret ptr %4
}

; Function Attrs: mustprogress nounwind uwtable
define linkonce_odr void @_ZNSt17basic_string_viewIcSt11char_traitsIcEEC2Ev(ptr noundef nonnull align 8 dereferenceable(16) %0) unnamed_addr #8 comdat align 2 {
  %2 = alloca ptr, align 8
  store ptr %0, ptr %2, align 8, !tbaa !36
  %3 = load ptr, ptr %2, align 8
  %4 = getelementptr inbounds nuw %"class.std::basic_string_view", ptr %3, i32 0, i32 0
  store i64 0, ptr %4, align 8, !tbaa !38
  %5 = getelementptr inbounds nuw %"class.std::basic_string_view", ptr %3, i32 0, i32 1
  store ptr null, ptr %5, align 8, !tbaa !40
  ret void
}

; Function Attrs: mustprogress nounwind uwtable
define linkonce_odr void @_ZNSt17basic_string_viewIcSt11char_traitsIcEEC2EPKc(ptr noundef nonnull align 8 dereferenceable(16) %0, ptr noundef nonnull %1) unnamed_addr #8 comdat align 2 personality ptr @__gxx_personality_v0 {
  %3 = alloca ptr, align 8
  %4 = alloca ptr, align 8
  store ptr %0, ptr %3, align 8, !tbaa !36
  store ptr %1, ptr %4, align 8, !tbaa !10
  %5 = load ptr, ptr %3, align 8
  %6 = getelementptr inbounds nuw %"class.std::basic_string_view", ptr %5, i32 0, i32 0
  %7 = load ptr, ptr %4, align 8, !tbaa !10
  %8 = invoke noundef i64 @_ZNSt11char_traitsIcE6lengthEPKc(ptr noundef %7)
          to label %9 unwind label %12

9:                                                ; preds = %2
  store i64 %8, ptr %6, align 8, !tbaa !38
  %10 = getelementptr inbounds nuw %"class.std::basic_string_view", ptr %5, i32 0, i32 1
  %11 = load ptr, ptr %4, align 8, !tbaa !10
  store ptr %11, ptr %10, align 8, !tbaa !40
  ret void

12:                                               ; preds = %2
  %13 = landingpad { ptr, i32 }
          catch ptr null
  %14 = extractvalue { ptr, i32 } %13, 0
  call void @__clang_call_terminate(ptr %14) #22
  unreachable
}

; Function Attrs: mustprogress nounwind uwtable
define linkonce_odr { i64, ptr } @_ZNK4absl12lts_202407228AlphaNum5PieceEv(ptr noundef nonnull align 8 dereferenceable(48) %0) #8 comdat align 2 {
  %2 = alloca %"class.std::basic_string_view", align 8
  %3 = alloca ptr, align 8
  store ptr %0, ptr %3, align 8, !tbaa !28
  %4 = load ptr, ptr %3, align 8
  %5 = getelementptr inbounds nuw %"class.absl::lts_20240722::AlphaNum", ptr %4, i32 0, i32 0
  call void @llvm.memcpy.p0.p0.i64(ptr align 8 %2, ptr align 8 %5, i64 16, i1 false), !tbaa.struct !33
  %6 = load { i64, ptr }, ptr %2, align 8
  ret { i64, ptr } %6
}

; Function Attrs: mustprogress nounwind uwtable
define linkonce_odr noundef nonnull align 8 dereferenceable(8) ptr @_ZNKSt19_Optional_base_implIlSt14_Optional_baseIlLb1ELb1EEE6_M_getEv(ptr noundef nonnull align 1 dereferenceable(1) %0) #8 comdat align 2 {
  %2 = alloca ptr, align 8
  store ptr %0, ptr %2, align 8, !tbaa !212
  %3 = load ptr, ptr %2, align 8
  br label %4

4:                                                ; preds = %1
  br label %5

5:                                                ; preds = %4
  br label %6

6:                                                ; preds = %5
  %7 = getelementptr inbounds nuw %"struct.std::_Optional_base", ptr %3, i32 0, i32 0
  %8 = call noundef nonnull align 8 dereferenceable(8) ptr @_ZNKSt22_Optional_payload_baseIlE6_M_getEv(ptr noundef nonnull align 8 dereferenceable(9) %7) #3
  ret ptr %8
}

; Function Attrs: mustprogress nounwind uwtable
define linkonce_odr noundef zeroext i1 @_ZNKSt19_Optional_base_implIlSt14_Optional_baseIlLb1ELb1EEE13_M_is_engagedEv(ptr noundef nonnull align 1 dereferenceable(1) %0) #8 comdat align 2 {
  %2 = alloca ptr, align 8
  store ptr %0, ptr %2, align 8, !tbaa !212
  %3 = load ptr, ptr %2, align 8
  %4 = getelementptr inbounds nuw %"struct.std::_Optional_base", ptr %3, i32 0, i32 0
  %5 = getelementptr inbounds nuw %"struct.std::_Optional_payload_base", ptr %4, i32 0, i32 1
  %6 = load i8, ptr %5, align 8, !tbaa !174, !range !59, !noundef !60
  %7 = trunc i8 %6 to i1
  ret i1 %7
}

; Function Attrs: mustprogress nounwind uwtable
define linkonce_odr void @_ZNSt17basic_string_viewIcSt11char_traitsIcEEC2EPKcm(ptr noundef nonnull align 8 dereferenceable(16) %0, ptr noundef %1, i64 noundef %2) unnamed_addr #8 comdat align 2 {
  %4 = alloca ptr, align 8
  %5 = alloca ptr, align 8
  %6 = alloca i64, align 8
  store ptr %0, ptr %4, align 8, !tbaa !36
  store ptr %1, ptr %5, align 8, !tbaa !10
  store i64 %2, ptr %6, align 8, !tbaa !34
  %7 = load ptr, ptr %4, align 8
  %8 = getelementptr inbounds nuw %"class.std::basic_string_view", ptr %7, i32 0, i32 0
  %9 = load i64, ptr %6, align 8, !tbaa !34
  store i64 %9, ptr %8, align 8, !tbaa !38
  %10 = getelementptr inbounds nuw %"class.std::basic_string_view", ptr %7, i32 0, i32 1
  %11 = load ptr, ptr %5, align 8, !tbaa !10
  store ptr %11, ptr %10, align 8, !tbaa !40
  ret void
}

; Function Attrs: mustprogress nounwind uwtable
define linkonce_odr { i64, ptr } @_ZN4absl12lts_2024072218NullSafeStringViewEPKc(ptr noundef %0) #8 comdat {
  %2 = alloca %"class.std::basic_string_view", align 8
  %3 = alloca ptr, align 8
  store ptr %0, ptr %3, align 8, !tbaa !10
  %4 = load ptr, ptr %3, align 8, !tbaa !10
  %5 = icmp ne ptr %4, null
  br i1 %5, label %6, label %8

6:                                                ; preds = %1
  %7 = load ptr, ptr %3, align 8, !tbaa !10
  call void @_ZNSt17basic_string_viewIcSt11char_traitsIcEEC2EPKc(ptr noundef nonnull align 8 dereferenceable(16) %2, ptr noundef %7) #3
  br label %9

8:                                                ; preds = %1
  call void @_ZNSt17basic_string_viewIcSt11char_traitsIcEEC2Ev(ptr noundef nonnull align 8 dereferenceable(16) %2) #3
  br label %9

9:                                                ; preds = %8, %6
  %10 = load { i64, ptr }, ptr %2, align 8
  ret { i64, ptr } %10
}

; Function Attrs: inlinehint mustprogress uwtable
define linkonce_odr void @_ZN4absl12lts_202407226StrCatIJllEEENSt7__cxx1112basic_stringIcSt11char_traitsIcESaIcEEERKNS0_8AlphaNumESA_SA_SA_SA_DpRKT_(ptr dead_on_unwind noalias writable sret(%"class.std::__cxx11::basic_string") align 8 %0, ptr noundef nonnull align 8 dereferenceable(48) %1, ptr noundef nonnull align 8 dereferenceable(48) %2, ptr noundef nonnull align 8 dereferenceable(48) %3, ptr noundef nonnull align 8 dereferenceable(48) %4, ptr noundef nonnull align 8 dereferenceable(48) %5, ptr noundef nonnull align 8 dereferenceable(8) %6, ptr noundef nonnull align 8 dereferenceable(8) %7) #6 comdat {
  %9 = alloca ptr, align 8
  %10 = alloca ptr, align 8
  %11 = alloca ptr, align 8
  %12 = alloca ptr, align 8
  %13 = alloca ptr, align 8
  %14 = alloca ptr, align 8
  %15 = alloca ptr, align 8
  %16 = alloca ptr, align 8
  %17 = alloca %"class.std::initializer_list.56", align 8
  %18 = alloca [7 x %"class.std::basic_string_view"], align 8
  %19 = alloca %"class.absl::lts_20240722::AlphaNum", align 8
  %20 = alloca %"class.absl::lts_20240722::AlphaNum", align 8
  store ptr %0, ptr %9, align 8
  store ptr %1, ptr %10, align 8, !tbaa !28
  store ptr %2, ptr %11, align 8, !tbaa !28
  store ptr %3, ptr %12, align 8, !tbaa !28
  store ptr %4, ptr %13, align 8, !tbaa !28
  store ptr %5, ptr %14, align 8, !tbaa !28
  store ptr %6, ptr %15, align 8, !tbaa !99
  store ptr %7, ptr %16, align 8, !tbaa !99
  call void @llvm.lifetime.start.p0(i64 112, ptr %18) #3
  %21 = load ptr, ptr %10, align 8, !tbaa !28
  %22 = call { i64, ptr } @_ZNK4absl12lts_202407228AlphaNum5PieceEv(ptr noundef nonnull align 8 dereferenceable(48) %21)
  %23 = getelementptr inbounds nuw { i64, ptr }, ptr %18, i32 0, i32 0
  %24 = extractvalue { i64, ptr } %22, 0
  store i64 %24, ptr %23, align 8
  %25 = getelementptr inbounds nuw { i64, ptr }, ptr %18, i32 0, i32 1
  %26 = extractvalue { i64, ptr } %22, 1
  store ptr %26, ptr %25, align 8
  %27 = getelementptr inbounds %"class.std::basic_string_view", ptr %18, i64 1
  %28 = load ptr, ptr %11, align 8, !tbaa !28
  %29 = call { i64, ptr } @_ZNK4absl12lts_202407228AlphaNum5PieceEv(ptr noundef nonnull align 8 dereferenceable(48) %28)
  %30 = getelementptr inbounds nuw { i64, ptr }, ptr %27, i32 0, i32 0
  %31 = extractvalue { i64, ptr } %29, 0
  store i64 %31, ptr %30, align 8
  %32 = getelementptr inbounds nuw { i64, ptr }, ptr %27, i32 0, i32 1
  %33 = extractvalue { i64, ptr } %29, 1
  store ptr %33, ptr %32, align 8
  %34 = getelementptr inbounds %"class.std::basic_string_view", ptr %18, i64 2
  %35 = load ptr, ptr %12, align 8, !tbaa !28
  %36 = call { i64, ptr } @_ZNK4absl12lts_202407228AlphaNum5PieceEv(ptr noundef nonnull align 8 dereferenceable(48) %35)
  %37 = getelementptr inbounds nuw { i64, ptr }, ptr %34, i32 0, i32 0
  %38 = extractvalue { i64, ptr } %36, 0
  store i64 %38, ptr %37, align 8
  %39 = getelementptr inbounds nuw { i64, ptr }, ptr %34, i32 0, i32 1
  %40 = extractvalue { i64, ptr } %36, 1
  store ptr %40, ptr %39, align 8
  %41 = getelementptr inbounds %"class.std::basic_string_view", ptr %18, i64 3
  %42 = load ptr, ptr %13, align 8, !tbaa !28
  %43 = call { i64, ptr } @_ZNK4absl12lts_202407228AlphaNum5PieceEv(ptr noundef nonnull align 8 dereferenceable(48) %42)
  %44 = getelementptr inbounds nuw { i64, ptr }, ptr %41, i32 0, i32 0
  %45 = extractvalue { i64, ptr } %43, 0
  store i64 %45, ptr %44, align 8
  %46 = getelementptr inbounds nuw { i64, ptr }, ptr %41, i32 0, i32 1
  %47 = extractvalue { i64, ptr } %43, 1
  store ptr %47, ptr %46, align 8
  %48 = getelementptr inbounds %"class.std::basic_string_view", ptr %18, i64 4
  %49 = load ptr, ptr %14, align 8, !tbaa !28
  %50 = call { i64, ptr } @_ZNK4absl12lts_202407228AlphaNum5PieceEv(ptr noundef nonnull align 8 dereferenceable(48) %49)
  %51 = getelementptr inbounds nuw { i64, ptr }, ptr %48, i32 0, i32 0
  %52 = extractvalue { i64, ptr } %50, 0
  store i64 %52, ptr %51, align 8
  %53 = getelementptr inbounds nuw { i64, ptr }, ptr %48, i32 0, i32 1
  %54 = extractvalue { i64, ptr } %50, 1
  store ptr %54, ptr %53, align 8
  %55 = getelementptr inbounds %"class.std::basic_string_view", ptr %18, i64 5
  call void @llvm.lifetime.start.p0(i64 48, ptr %19) #3
  %56 = load ptr, ptr %15, align 8, !tbaa !99
  %57 = load i64, ptr %56, align 8, !tbaa !34
  call void @_ZN4absl12lts_202407228AlphaNumC2El(ptr noundef nonnull align 8 dereferenceable(48) %19, i64 noundef %57)
  %58 = call { i64, ptr } @_ZNK4absl12lts_202407228AlphaNum5PieceEv(ptr noundef nonnull align 8 dereferenceable(48) %19)
  %59 = getelementptr inbounds nuw { i64, ptr }, ptr %55, i32 0, i32 0
  %60 = extractvalue { i64, ptr } %58, 0
  store i64 %60, ptr %59, align 8
  %61 = getelementptr inbounds nuw { i64, ptr }, ptr %55, i32 0, i32 1
  %62 = extractvalue { i64, ptr } %58, 1
  store ptr %62, ptr %61, align 8
  %63 = getelementptr inbounds %"class.std::basic_string_view", ptr %18, i64 6
  call void @llvm.lifetime.start.p0(i64 48, ptr %20) #3
  %64 = load ptr, ptr %16, align 8, !tbaa !99
  %65 = load i64, ptr %64, align 8, !tbaa !34
  call void @_ZN4absl12lts_202407228AlphaNumC2El(ptr noundef nonnull align 8 dereferenceable(48) %20, i64 noundef %65)
  %66 = call { i64, ptr } @_ZNK4absl12lts_202407228AlphaNum5PieceEv(ptr noundef nonnull align 8 dereferenceable(48) %20)
  %67 = getelementptr inbounds nuw { i64, ptr }, ptr %63, i32 0, i32 0
  %68 = extractvalue { i64, ptr } %66, 0
  store i64 %68, ptr %67, align 8
  %69 = getelementptr inbounds nuw { i64, ptr }, ptr %63, i32 0, i32 1
  %70 = extractvalue { i64, ptr } %66, 1
  store ptr %70, ptr %69, align 8
  %71 = getelementptr inbounds nuw %"class.std::initializer_list.56", ptr %17, i32 0, i32 0
  store ptr %18, ptr %71, align 8, !tbaa !139
  %72 = getelementptr inbounds nuw %"class.std::initializer_list.56", ptr %17, i32 0, i32 1
  store i64 7, ptr %72, align 8, !tbaa !141
  %73 = getelementptr inbounds nuw { ptr, i64 }, ptr %17, i32 0, i32 0
  %74 = load ptr, ptr %73, align 8
  %75 = getelementptr inbounds nuw { ptr, i64 }, ptr %17, i32 0, i32 1
  %76 = load i64, ptr %75, align 8
  call void @_ZN4absl12lts_2024072216strings_internal9CatPiecesB5cxx11ESt16initializer_listISt17basic_string_viewIcSt11char_traitsIcEEE(ptr dead_on_unwind writable sret(%"class.std::__cxx11::basic_string") align 8 %0, ptr %74, i64 %76)
  call void @llvm.lifetime.end.p0(i64 48, ptr %20) #3
  call void @llvm.lifetime.end.p0(i64 48, ptr %19) #3
  call void @llvm.lifetime.end.p0(i64 112, ptr %18) #3
  ret void
}

; Function Attrs: mustprogress nounwind uwtable
define linkonce_odr noundef nonnull align 8 dereferenceable(8) ptr @_ZNKRSt8optionalIlEdeEv(ptr noundef nonnull align 8 dereferenceable(16) %0) #8 comdat align 2 {
  %2 = alloca ptr, align 8
  store ptr %0, ptr %2, align 8, !tbaa !80
  %3 = load ptr, ptr %2, align 8
  %4 = call noundef nonnull align 8 dereferenceable(8) ptr @_ZNKSt19_Optional_base_implIlSt14_Optional_baseIlLb1ELb1EEE6_M_getEv(ptr noundef nonnull align 1 dereferenceable(1) %3) #3
  ret ptr %4
}

; Function Attrs: mustprogress nounwind uwtable
define linkonce_odr noundef zeroext i1 @_ZNKSt8optionalIlE9has_valueEv(ptr noundef nonnull align 8 dereferenceable(16) %0) #8 comdat align 2 {
  %2 = alloca ptr, align 8
  store ptr %0, ptr %2, align 8, !tbaa !80
  %3 = load ptr, ptr %2, align 8
  %4 = call noundef zeroext i1 @_ZNKSt19_Optional_base_implIlSt14_Optional_baseIlLb1ELb1EEE13_M_is_engagedEv(ptr noundef nonnull align 1 dereferenceable(1) %3) #3
  ret i1 %4
}

; Function Attrs: mustprogress uwtable
define linkonce_odr void @_ZN4absl12lts_202407228AlphaNumC2El(ptr noundef nonnull align 8 dereferenceable(48) %0, i64 noundef %1) unnamed_addr #4 comdat align 2 {
  %3 = alloca ptr, align 8
  %4 = alloca i64, align 8
  store ptr %0, ptr %3, align 8, !tbaa !28
  store i64 %1, ptr %4, align 8, !tbaa !34
  %5 = load ptr, ptr %3, align 8
  %6 = getelementptr inbounds nuw %"class.absl::lts_20240722::AlphaNum", ptr %5, i32 0, i32 0
  %7 = getelementptr inbounds nuw %"class.absl::lts_20240722::AlphaNum", ptr %5, i32 0, i32 1
  %8 = getelementptr inbounds [32 x i8], ptr %7, i64 0, i64 0
  %9 = load i64, ptr %4, align 8, !tbaa !34
  %10 = getelementptr inbounds nuw %"class.absl::lts_20240722::AlphaNum", ptr %5, i32 0, i32 1
  %11 = getelementptr inbounds [32 x i8], ptr %10, i64 0, i64 0
  %12 = call noundef ptr @_ZN4absl12lts_2024072216numbers_internal15FastIntToBufferElPc(i64 noundef %9, ptr noundef %11)
  %13 = getelementptr inbounds nuw %"class.absl::lts_20240722::AlphaNum", ptr %5, i32 0, i32 1
  %14 = getelementptr inbounds [32 x i8], ptr %13, i64 0, i64 0
  %15 = ptrtoint ptr %12 to i64
  %16 = ptrtoint ptr %14 to i64
  %17 = sub i64 %15, %16
  call void @_ZNSt17basic_string_viewIcSt11char_traitsIcEEC2EPKcm(ptr noundef nonnull align 8 dereferenceable(16) %6, ptr noundef %8, i64 noundef %17) #3
  ret void
}

; Function Attrs: mustprogress uwtable
define linkonce_odr void @_ZN4absl12lts_202407228AlphaNumC2EPKc(ptr noundef nonnull align 8 dereferenceable(48) %0, ptr noundef %1) unnamed_addr #4 comdat align 2 {
  %3 = alloca ptr, align 8
  %4 = alloca ptr, align 8
  store ptr %0, ptr %3, align 8, !tbaa !28
  store ptr %1, ptr %4, align 8, !tbaa !10
  %5 = load ptr, ptr %3, align 8
  %6 = load ptr, ptr %4, align 8, !tbaa !10
  %7 = call { i64, ptr } @_ZN4absl12lts_2024072218NullSafeStringViewEPKc(ptr noundef %6)
  %8 = getelementptr inbounds nuw { i64, ptr }, ptr %5, i32 0, i32 0
  %9 = extractvalue { i64, ptr } %7, 0
  store i64 %9, ptr %8, align 8
  %10 = getelementptr inbounds nuw { i64, ptr }, ptr %5, i32 0, i32 1
  %11 = extractvalue { i64, ptr } %7, 1
  store ptr %11, ptr %10, align 8
  ret void
}

; Function Attrs: mustprogress uwtable
define void @_ZNK9grpc_core6chttp217StreamFlowControl5Stats8ToStringB5cxx11Ev(ptr dead_on_unwind noalias writable sret(%"class.std::__cxx11::basic_string") align 8 %0, ptr noundef nonnull align 8 dereferenceable(40) %1) #4 align 2 {
  %3 = alloca ptr, align 8
  %4 = alloca ptr, align 8
  %5 = alloca %"class.absl::lts_20240722::AlphaNum", align 8
  %6 = alloca %"class.absl::lts_20240722::AlphaNum", align 8
  %7 = alloca %"class.absl::lts_20240722::AlphaNum", align 8
  %8 = alloca %"class.absl::lts_20240722::AlphaNum", align 8
  %9 = alloca %"class.absl::lts_20240722::AlphaNum", align 8
  %10 = alloca i64, align 8
  store ptr %0, ptr %3, align 8
  store ptr %1, ptr %4, align 8, !tbaa !150
  %11 = load ptr, ptr %4, align 8
  call void @llvm.lifetime.start.p0(i64 48, ptr %5) #3
  call void @_ZN4absl12lts_202407228AlphaNumC2EPKc(ptr noundef nonnull align 8 dereferenceable(48) %5, ptr noundef @.str.30)
  call void @llvm.lifetime.start.p0(i64 48, ptr %6) #3
  %12 = getelementptr inbounds nuw %"struct.grpc_core::chttp2::StreamFlowControl::Stats", ptr %11, i32 0, i32 0
  %13 = load i64, ptr %12, align 8, !tbaa !152
  call void @_ZN4absl12lts_202407228AlphaNumC2El(ptr noundef nonnull align 8 dereferenceable(48) %6, i64 noundef %13)
  call void @llvm.lifetime.start.p0(i64 48, ptr %7) #3
  call void @_ZN4absl12lts_202407228AlphaNumC2EPKc(ptr noundef nonnull align 8 dereferenceable(48) %7, ptr noundef @.str.31)
  call void @llvm.lifetime.start.p0(i64 48, ptr %8) #3
  %14 = getelementptr inbounds nuw %"struct.grpc_core::chttp2::StreamFlowControl::Stats", ptr %11, i32 0, i32 1
  %15 = load i64, ptr %14, align 8, !tbaa !154
  call void @_ZN4absl12lts_202407228AlphaNumC2El(ptr noundef nonnull align 8 dereferenceable(48) %8, i64 noundef %15)
  call void @llvm.lifetime.start.p0(i64 48, ptr %9) #3
  call void @_ZN4absl12lts_202407228AlphaNumC2EPKc(ptr noundef nonnull align 8 dereferenceable(48) %9, ptr noundef @.str.32)
  %16 = getelementptr inbounds nuw %"struct.grpc_core::chttp2::StreamFlowControl::Stats", ptr %11, i32 0, i32 2
  call void @llvm.lifetime.start.p0(i64 8, ptr %10) #3
  %17 = getelementptr inbounds nuw %"struct.grpc_core::chttp2::StreamFlowControl::Stats", ptr %11, i32 0, i32 3
  %18 = call noundef zeroext i1 @_ZNKSt8optionalIlE9has_valueEv(ptr noundef nonnull align 8 dereferenceable(16) %17) #3
  br i1 %18, label %19, label %23

19:                                               ; preds = %2
  %20 = getelementptr inbounds nuw %"struct.grpc_core::chttp2::StreamFlowControl::Stats", ptr %11, i32 0, i32 3
  %21 = call noundef nonnull align 8 dereferenceable(8) ptr @_ZNKRSt8optionalIlEdeEv(ptr noundef nonnull align 8 dereferenceable(16) %20) #3
  %22 = load i64, ptr %21, align 8, !tbaa !34
  br label %24

23:                                               ; preds = %2
  br label %24

24:                                               ; preds = %23, %19
  %25 = phi i64 [ %22, %19 ], [ -1, %23 ]
  store i64 %25, ptr %10, align 8, !tbaa !34
  call void @_ZN4absl12lts_202407226StrCatIJllEEENSt7__cxx1112basic_stringIcSt11char_traitsIcESaIcEEERKNS0_8AlphaNumESA_SA_SA_SA_DpRKT_(ptr dead_on_unwind writable sret(%"class.std::__cxx11::basic_string") align 8 %0, ptr noundef nonnull align 8 dereferenceable(48) %5, ptr noundef nonnull align 8 dereferenceable(48) %6, ptr noundef nonnull align 8 dereferenceable(48) %7, ptr noundef nonnull align 8 dereferenceable(48) %8, ptr noundef nonnull align 8 dereferenceable(48) %9, ptr noundef nonnull align 8 dereferenceable(8) %16, ptr noundef nonnull align 8 dereferenceable(8) %10)
  call void @llvm.lifetime.end.p0(i64 8, ptr %10) #3
  call void @llvm.lifetime.end.p0(i64 48, ptr %9) #3
  call void @llvm.lifetime.end.p0(i64 48, ptr %8) #3
  call void @llvm.lifetime.end.p0(i64 48, ptr %7) #3
  call void @llvm.lifetime.end.p0(i64 48, ptr %6) #3
  call void @llvm.lifetime.end.p0(i64 48, ptr %5) #3
  ret void
}