; Function Attrs: mustprogress uwtable
define void @_ZNK9grpc_core6chttp217StreamFlowControl5Stats8ToStringB5cxx11Ev(ptr dead_on_unwind noalias writable sret(%"class.std::__cxx11::basic_string") align 8 %0, ptr noundef nonnull readonly align 8 captures(none) dereferenceable(40) %1) local_unnamed_addr #3 align 2 personality ptr @__gxx_personality_v0 {
  %3 = alloca [7 x %"class.std::basic_string_view"], align 8
  %4 = alloca %"class.absl::lts_20240722::AlphaNum", align 8
  %5 = alloca %"class.absl::lts_20240722::AlphaNum", align 8
  %6 = alloca %"class.absl::lts_20240722::AlphaNum", align 8
  %7 = alloca %"class.absl::lts_20240722::AlphaNum", align 8
  call void @llvm.lifetime.start.p0(i64 48, ptr nonnull %6) #28
  %8 = load i64, ptr %1, align 8, !tbaa !139
  %9 = getelementptr inbounds nuw i8, ptr %6, i64 16
  %10 = call noundef ptr @_ZN4absl12lts_2024072216numbers_internal15FastIntToBufferElPc(i64 noundef %8, ptr noundef nonnull %9)
  %11 = ptrtoint ptr %10 to i64
  %12 = ptrtoint ptr %9 to i64
  %13 = sub i64 %11, %12
  store i64 %13, ptr %6, align 8, !tbaa !25
  %14 = getelementptr inbounds nuw i8, ptr %6, i64 8
  store ptr %9, ptr %14, align 8, !tbaa !27
  call void @llvm.lifetime.start.p0(i64 48, ptr nonnull %7) #28
  %15 = getelementptr inbounds nuw i8, ptr %1, i64 8
  %16 = load i64, ptr %15, align 8, !tbaa !141
  %17 = getelementptr inbounds nuw i8, ptr %7, i64 16
  %18 = call noundef ptr @_ZN4absl12lts_2024072216numbers_internal15FastIntToBufferElPc(i64 noundef %16, ptr noundef nonnull %17)
  %19 = ptrtoint ptr %18 to i64
  %20 = ptrtoint ptr %17 to i64
  %21 = sub i64 %19, %20
  store i64 %21, ptr %7, align 8, !tbaa !25
  %22 = getelementptr inbounds nuw i8, ptr %7, i64 8
  store ptr %17, ptr %22, align 8, !tbaa !27
  %23 = getelementptr inbounds nuw i8, ptr %1, i64 24
  %24 = getelementptr inbounds nuw i8, ptr %1, i64 32
  %25 = load i8, ptr %24, align 8, !tbaa !75, !range !114, !noundef !112
  %26 = trunc nuw i8 %25 to i1
  %27 = load i64, ptr %23, align 8
  %spec.select = select i1 %26, i64 %27, i64 -1
  %28 = getelementptr inbounds nuw i8, ptr %1, i64 16
  call void @llvm.lifetime.start.p0(i64 112, ptr nonnull %3) #28, !noalias !142
  store i64 19, ptr %3, align 8, !noalias !142
  %29 = getelementptr inbounds nuw i8, ptr %3, i64 8
  store ptr @.str.30, ptr %29, align 8, !noalias !142
  %30 = getelementptr inbounds nuw i8, ptr %3, i64 16
  %.sroa.0.0.copyload.i7.i = load i64, ptr %6, align 8, !tbaa !67, !noalias !142
  %.sroa.2.0.copyload.i9.i = load ptr, ptr %14, align 8, !tbaa !130, !noalias !142
  store i64 %.sroa.0.0.copyload.i7.i, ptr %30, align 8, !noalias !142
  %31 = getelementptr inbounds nuw i8, ptr %3, i64 24
  store ptr %.sroa.2.0.copyload.i9.i, ptr %31, align 8, !noalias !142
  %32 = getelementptr inbounds nuw i8, ptr %3, i64 32
  store i64 22, ptr %32, align 8, !noalias !142
  %33 = getelementptr inbounds nuw i8, ptr %3, i64 40
  store ptr @.str.31, ptr %33, align 8, !noalias !142
  %34 = getelementptr inbounds nuw i8, ptr %3, i64 48
  store i64 %21, ptr %34, align 8, !noalias !142
  %35 = getelementptr inbounds nuw i8, ptr %3, i64 56
  store ptr %17, ptr %35, align 8, !noalias !142
  %36 = getelementptr inbounds nuw i8, ptr %3, i64 64
  store i64 25, ptr %36, align 8, !noalias !142
  %37 = getelementptr inbounds nuw i8, ptr %3, i64 72
  store ptr @.str.32, ptr %37, align 8, !noalias !142
  %38 = getelementptr inbounds nuw i8, ptr %3, i64 80
  call void @llvm.lifetime.start.p0(i64 48, ptr nonnull %4) #28, !noalias !142
  %39 = load i64, ptr %28, align 8, !tbaa !67, !noalias !142
  %40 = getelementptr inbounds nuw i8, ptr %4, i64 16
  %41 = call noundef ptr @_ZN4absl12lts_2024072216numbers_internal15FastIntToBufferElPc(i64 noundef %39, ptr noundef nonnull %40), !noalias !142
  %42 = ptrtoint ptr %41 to i64
  %43 = ptrtoint ptr %40 to i64
  %44 = sub i64 %42, %43
  store i64 %44, ptr %4, align 8, !tbaa !25, !noalias !142
  %45 = getelementptr inbounds nuw i8, ptr %4, i64 8
  store ptr %40, ptr %45, align 8, !tbaa !27, !noalias !142
  store i64 %44, ptr %38, align 8, !noalias !142
  %46 = getelementptr inbounds nuw i8, ptr %3, i64 88
  store ptr %40, ptr %46, align 8, !noalias !142
  %47 = getelementptr inbounds nuw i8, ptr %3, i64 96
  call void @llvm.lifetime.start.p0(i64 48, ptr nonnull %5) #28, !noalias !142
  %48 = getelementptr inbounds nuw i8, ptr %5, i64 16
  %49 = call noundef ptr @_ZN4absl12lts_2024072216numbers_internal15FastIntToBufferElPc(i64 noundef %spec.select, ptr noundef nonnull %48), !noalias !142
  %50 = ptrtoint ptr %49 to i64
  %51 = ptrtoint ptr %48 to i64
  %52 = sub i64 %50, %51
  store i64 %52, ptr %5, align 8, !tbaa !25, !noalias !142
  %53 = getelementptr inbounds nuw i8, ptr %5, i64 8
  store ptr %48, ptr %53, align 8, !tbaa !27, !noalias !142
  store i64 %52, ptr %47, align 8, !noalias !142
  %54 = getelementptr inbounds nuw i8, ptr %3, i64 104
  store ptr %48, ptr %54, align 8, !noalias !142
  call void @_ZN4absl12lts_2024072216strings_internal9CatPiecesB5cxx11ESt16initializer_listISt17basic_string_viewIcSt11char_traitsIcEEE(ptr dead_on_unwind writable sret(%"class.std::__cxx11::basic_string") align 8 %0, ptr nonnull %3, i64 7)
  call void @llvm.lifetime.end.p0(i64 48, ptr nonnull %5) #28, !noalias !142
  call void @llvm.lifetime.end.p0(i64 48, ptr nonnull %4) #28, !noalias !142
  call void @llvm.lifetime.end.p0(i64 112, ptr nonnull %3) #28, !noalias !142
  call void @llvm.lifetime.end.p0(i64 48, ptr nonnull %7) #28
  call void @llvm.lifetime.end.p0(i64 48, ptr nonnull %6) #28
  ret void
}